target datalayout = "e-m:e-p270:32:32-p271:32:32-p272:64:64-i64:64-i128:128-f80:128-n8:16:32:64-S128"
target triple = "x86_64-pc-linux-gnu"

%struct.slurm_conf_t = type { i64, ptr, i16, ptr, ptr, ptr, ptr, ptr, i16, ptr, ptr, ptr, ptr, ptr, ptr, ptr, i16, ptr, ptr, ptr, ptr, i16, ptr, ptr, ptr, i64, ptr, ptr, ptr, ptr, i16, ptr, ptr, i16, i32, ptr, i32, ptr, i32, i32, ptr, ptr, i64, i64, ptr, i16, i16, ptr, i32, i32, ptr, i32, ptr, i32, i16, i16, i16, ptr, i16, i16, ptr, ptr, i32, i16, i16, ptr, i32, i16, ptr, ptr, ptr, ptr, i16, ptr, ptr, ptr, ptr, i32, ptr, ptr, ptr, ptr, i16, i16, ptr, i32, i32, i32, i16, i16, ptr, ptr, i16, ptr, ptr, i32, i32, i32, i32, i32, i64, i32, i32, i16, ptr, ptr, i32, ptr, ptr, ptr, i16, i32, ptr, ptr, i16, ptr, ptr, i32, i16, ptr, ptr, ptr, ptr, i32, i32, i16, i16, i32, ptr, i16, ptr, i32, i32, i32, i32, i32, i32, ptr, i16, ptr, ptr, i32, i16, ptr, i32, i16, i16, ptr, ptr, ptr, i16, ptr, ptr, ptr, ptr, i16, i16, ptr, i16, ptr, i16, ptr, i16, ptr, i16, ptr, ptr, ptr, ptr, i16, ptr, ptr, ptr, i32, ptr, i32, ptr, ptr, i16, ptr, ptr, i32, i16, ptr, ptr, i16, i16, ptr, i16, ptr, ptr, ptr, i32, ptr, i16, i16, ptr, ptr, ptr, ptr, ptr, ptr, ptr, ptr, i16, i32, i16, ptr, ptr, ptr, ptr, i32, ptr, ptr, ptr, i16, ptr, ptr, ptr, i16, ptr, i16, ptr, i16, i16, ptr }
%union.pthread_attr_t = type { i64, [48 x i8] }
%struct.primary_thread_arg = type { i32, ptr }

@slurm_conf = external global %struct.slurm_conf_t, align 8
@.str.52 = private unnamed_addr constant [22 x i8] c"pthread_attr_init: %m\00", align 1
@.str.53 = private unnamed_addr constant [26 x i8] c"pthread_attr_setscope: %m\00", align 1
@.str.54 = private unnamed_addr constant [30 x i8] c"pthread_attr_setstacksize: %m\00", align 1
@.str.55 = private unnamed_addr constant [28 x i8] c"%s: pthread_create error %m\00", align 1
@.str.56 = private unnamed_addr constant [55 x i8] c"pthread_attr_destroy failed, possible memory leak!: %m\00", align 1
@.str.59 = private unnamed_addr constant [13 x i8] c"controller.c\00", align 1
@.str.221 = private unnamed_addr constant [35 x i8] c"%s: pthread_attr_setdetachstate %m\00", align 1
@.str.265 = private unnamed_addr constant [23 x i8] c"SlurmctldPrimaryOnProg\00", align 1
@.str.266 = private unnamed_addr constant [24 x i8] c"SlurmctldPrimaryOffProg\00", align 1
@.str.267 = private unnamed_addr constant [19 x i8] c"%s: Invalid %s: %m\00", align 1
@__func__._run_primary_prog = private unnamed_addr constant [18 x i8] c"_run_primary_prog\00", align 1
@.str.268 = private unnamed_addr constant [18 x i8] c"%s fork error: %m\00", align 1

; Function Attrs: nounwind uwtable
define internal void @_run_primary_prog(i1 noundef zeroext %0) #0 {
  %2 = alloca i8, align 1
  %3 = alloca ptr, align 8
  %4 = alloca ptr, align 8
  %5 = alloca ptr, align 8
  %6 = alloca [2 x ptr], align 16
  %7 = alloca ptr, align 8
  %8 = alloca i32, align 4
  %9 = alloca i32, align 4
  %10 = alloca i64, align 8
  %11 = alloca %union.pthread_attr_t, align 8
  %12 = alloca i32, align 4
  %13 = alloca i32, align 4
  %14 = alloca i32, align 4
  %15 = zext i1 %0 to i8
  store i8 %15, ptr %2, align 1
  call void @llvm.lifetime.start.p0(i64 8, ptr %3) #11
  call void @llvm.lifetime.start.p0(i64 8, ptr %4) #11
  call void @llvm.lifetime.start.p0(i64 8, ptr %5) #11
  call void @llvm.lifetime.start.p0(i64 16, ptr %6) #11
  call void @llvm.lifetime.start.p0(i64 8, ptr %7) #11
  call void @llvm.lifetime.start.p0(i64 4, ptr %8) #11
  %16 = load i8, ptr %2, align 1, !range !8, !noundef !9
  %17 = trunc i8 %16 to i1
  br i1 %17, label %18, label %20

18:                                               ; preds = %1
  %19 = load ptr, ptr getelementptr inbounds nuw (%struct.slurm_conf_t, ptr @slurm_conf, i32 0, i32 184), align 8
  store ptr %19, ptr %4, align 8
  store ptr @.str.265, ptr %5, align 8
  br label %22

20:                                               ; preds = %1
  %21 = load ptr, ptr getelementptr inbounds nuw (%struct.slurm_conf_t, ptr @slurm_conf, i32 0, i32 183), align 8
  store ptr %21, ptr %4, align 8
  store ptr @.str.266, ptr %5, align 8
  br label %22

22:                                               ; preds = %20, %18
  %23 = load ptr, ptr %4, align 8
  %24 = icmp eq ptr %23, null
  br i1 %24, label %31, label %25

25:                                               ; preds = %22
  %26 = load ptr, ptr %4, align 8
  %27 = getelementptr inbounds i8, ptr %26, i64 0
  %28 = load i8, ptr %27, align 1
  %29 = sext i8 %28 to i32
  %30 = icmp eq i32 %29, 0
  br i1 %30, label %31, label %32

31:                                               ; preds = %25, %22
  store i32 1, ptr %9, align 4
  br label %129

32:                                               ; preds = %25
  %33 = load ptr, ptr %4, align 8
  %34 = call i32 @access(ptr noundef %33, i32 noundef 1) #11
  %35 = icmp slt i32 %34, 0
  br i1 %35, label %36, label %39

36:                                               ; preds = %32
  %37 = load ptr, ptr %5, align 8
  %38 = call i32 (ptr, ...) @error(ptr noundef @.str.267, ptr noundef @__func__._run_primary_prog, ptr noundef %37)
  store i32 1, ptr %9, align 4
  br label %129

39:                                               ; preds = %32
  %40 = load ptr, ptr %4, align 8
  %41 = call ptr @strrchr(ptr noundef %40, i32 noundef 47) #15
  store ptr %41, ptr %7, align 8
  %42 = load ptr, ptr %7, align 8
  %43 = icmp ne ptr %42, null
  br i1 %43, label %44, label %48

44:                                               ; preds = %39
  %45 = load ptr, ptr %7, align 8
  %46 = getelementptr inbounds i8, ptr %45, i64 1
  %47 = getelementptr inbounds [2 x ptr], ptr %6, i64 0, i64 0
  store ptr %46, ptr %47, align 16
  br label %51

48:                                               ; preds = %39
  %49 = load ptr, ptr %4, align 8
  %50 = getelementptr inbounds [2 x ptr], ptr %6, i64 0, i64 0
  store ptr %49, ptr %50, align 16
  br label %51

51:                                               ; preds = %48, %44
  %52 = getelementptr inbounds [2 x ptr], ptr %6, i64 0, i64 1
  store ptr null, ptr %52, align 8
  %53 = call i32 @fork() #11
  store i32 %53, ptr %8, align 4
  %54 = icmp slt i32 %53, 0
  br i1 %54, label %55, label %57

55:                                               ; preds = %51
  %56 = call i32 (ptr, ...) @error(ptr noundef @.str.268, ptr noundef @__func__._run_primary_prog)
  store i32 1, ptr %9, align 4
  br label %129

57:                                               ; preds = %51
  %58 = load i32, ptr %8, align 4
  %59 = icmp eq i32 %58, 0
  br i1 %59, label %60, label %65

60:                                               ; preds = %57
  call void @closeall(i32 noundef 0)
  %61 = call i32 @setpgid(i32 noundef 0, i32 noundef 0) #11
  %62 = load ptr, ptr %4, align 8
  %63 = getelementptr inbounds [2 x ptr], ptr %6, i64 0, i64 0
  %64 = call i32 @execv(ptr noundef %62, ptr noundef %63) #11
  call void @_exit(i32 noundef 127) #12
  unreachable

65:                                               ; preds = %57
  %66 = call ptr @slurm_xcalloc(i64 noundef 1, i64 noundef 16, i1 noundef zeroext true, i1 noundef zeroext false, ptr noundef @.str.59, i32 noundef 4029, ptr noundef @__func__._run_primary_prog)
  store ptr %66, ptr %3, align 8
  %67 = load i32, ptr %8, align 4
  %68 = load ptr, ptr %3, align 8
  %69 = getelementptr inbounds nuw %struct.primary_thread_arg, ptr %68, i32 0, i32 0
  store i32 %67, ptr %69, align 8
  %70 = load ptr, ptr %5, align 8
  %71 = call ptr @xstrdup(ptr noundef %70)
  %72 = load ptr, ptr %3, align 8
  %73 = getelementptr inbounds nuw %struct.primary_thread_arg, ptr %72, i32 0, i32 1
  store ptr %71, ptr %73, align 8
  br label %74

74:                                               ; preds = %65
  call void @llvm.lifetime.start.p0(i64 8, ptr %10) #11
  call void @llvm.lifetime.start.p0(i64 56, ptr %11) #11
  call void @llvm.lifetime.start.p0(i64 4, ptr %12) #11
  br label %75

75:                                               ; preds = %74
  call void @llvm.lifetime.start.p0(i64 4, ptr %13) #11
  %76 = call i32 @pthread_attr_init(ptr noundef %11) #11
  store i32 %76, ptr %13, align 4
  %77 = load i32, ptr %13, align 4
  %78 = icmp ne i32 %77, 0
  br i1 %78, label %79, label %82

79:                                               ; preds = %75
  %80 = load i32, ptr %13, align 4
  %81 = call ptr @__errno_location() #14
  store i32 %80, ptr %81, align 4
  call void (ptr, ...) @fatal(ptr noundef @.str.52) #12
  unreachable

82:                                               ; preds = %75
  %83 = call i32 @pthread_attr_setscope(ptr noundef %11, i32 noundef 0) #11
  store i32 %83, ptr %13, align 4
  %84 = load i32, ptr %13, align 4
  %85 = icmp ne i32 %84, 0
  br i1 %85, label %86, label %90

86:                                               ; preds = %82
  %87 = load i32, ptr %13, align 4
  %88 = call ptr @__errno_location() #14
  store i32 %87, ptr %88, align 4
  %89 = call i32 (ptr, ...) @error(ptr noundef @.str.53)
  br label %90

90:                                               ; preds = %86, %82
  %91 = call i32 @pthread_attr_setstacksize(ptr noundef %11, i64 noundef 1048576) #11
  store i32 %91, ptr %13, align 4
  %92 = load i32, ptr %13, align 4
  %93 = icmp ne i32 %92, 0
  br i1 %93, label %94, label %98

94:                                               ; preds = %90
  %95 = load i32, ptr %13, align 4
  %96 = call ptr @__errno_location() #14
  store i32 %95, ptr %96, align 4
  %97 = call i32 (ptr, ...) @error(ptr noundef @.str.54)
  br label %98

98:                                               ; preds = %94, %90
  call void @llvm.lifetime.end.p0(i64 4, ptr %13) #11
  br label %99

99:                                               ; preds = %98
  br label %100

100:                                              ; preds = %99
  %101 = call i32 @pthread_attr_setdetachstate(ptr noundef %11, i32 noundef 1) #11
  store i32 %101, ptr %12, align 4
  %102 = load i32, ptr %12, align 4
  %103 = icmp ne i32 %102, 0
  br i1 %103, label %104, label %107

104:                                              ; preds = %100
  %105 = load i32, ptr %12, align 4
  %106 = call ptr @__errno_location() #14
  store i32 %105, ptr %106, align 4
  call void (ptr, ...) @fatal(ptr noundef @.str.221, ptr noundef @__func__._run_primary_prog) #12
  unreachable

107:                                              ; preds = %100
  %108 = load ptr, ptr %3, align 8
  %109 = call i32 @pthread_create(ptr noundef %10, ptr noundef %11, ptr noundef @_wait_primary_prog, ptr noundef %108) #11
  store i32 %109, ptr %12, align 4
  %110 = load i32, ptr %12, align 4
  %111 = icmp ne i32 %110, 0
  br i1 %111, label %112, label %115

112:                                              ; preds = %107
  %113 = load i32, ptr %12, align 4
  %114 = call ptr @__errno_location() #14
  store i32 %113, ptr %114, align 4
  call void (ptr, ...) @fatal(ptr noundef @.str.55, ptr noundef @__func__._run_primary_prog) #12
  unreachable

115:                                              ; preds = %107
  br label %116

116:                                              ; preds = %115
  call void @llvm.lifetime.start.p0(i64 4, ptr %14) #11
  %117 = call i32 @pthread_attr_destroy(ptr noundef %11) #11
  store i32 %117, ptr %14, align 4
  %118 = load i32, ptr %14, align 4
  %119 = icmp ne i32 %118, 0
  br i1 %119, label %120, label %124

120:                                              ; preds = %116
  %121 = load i32, ptr %14, align 4
  %122 = call ptr @__errno_location() #14
  store i32 %121, ptr %122, align 4
  %123 = call i32 (ptr, ...) @error(ptr noundef @.str.56)
  br label %124

124:                                              ; preds = %120, %116
  call void @llvm.lifetime.end.p0(i64 4, ptr %14) #11
  br label %125

125:                                              ; preds = %124
  br label %126

126:                                              ; preds = %125
  call void @llvm.lifetime.end.p0(i64 4, ptr %12) #11
  call void @llvm.lifetime.end.p0(i64 56, ptr %11) #11
  call void @llvm.lifetime.end.p0(i64 8, ptr %10) #11
  br label %127

127:                                              ; preds = %126
  br label %128

128:                                              ; preds = %127
  store i32 0, ptr %9, align 4
  br label %129

129:                                              ; preds = %128, %55, %36, %31
  call void @llvm.lifetime.end.p0(i64 4, ptr %8) #11
  call void @llvm.lifetime.end.p0(i64 8, ptr %7) #11
  call void @llvm.lifetime.end.p0(i64 16, ptr %6) #11
  call void @llvm.lifetime.end.p0(i64 8, ptr %5) #11
  call void @llvm.lifetime.end.p0(i64 8, ptr %4) #11
  call void @llvm.lifetime.end.p0(i64 8, ptr %3) #11
  %130 = load i32, ptr %9, align 4
  switch i32 %130, label %132 [
    i32 0, label %131
    i32 1, label %131
  ]

131:                                              ; preds = %129, %129
  ret void

132:                                              ; preds = %129
  unreachable
}