; Function Attrs: nounwind uwtable
define internal fastcc void @_run_primary_prog(i1 noundef zeroext %0) unnamed_addr #6 {
  %2 = alloca [2 x ptr], align 16
  %3 = alloca i64, align 8
  %4 = alloca %union.pthread_attr_t, align 8
  call void @llvm.lifetime.start.p0(i64 16, ptr nonnull %2) #19
  %.str.265..str.266 = select i1 %0, ptr @.str.265, ptr @.str.266
  %.val = load ptr, ptr getelementptr inbounds nuw (i8, ptr @slurm_conf, i64 1232), align 8
  %.val42 = load ptr, ptr getelementptr inbounds nuw (i8, ptr @slurm_conf, i64 1224), align 8
  %.0 = select i1 %0, ptr %.val, ptr %.val42
  %5 = icmp eq ptr %.0, null
  br i1 %5, label %58, label %6

6:                                                ; preds = %1
  %7 = load i8, ptr %.0, align 1
  %8 = icmp eq i8 %7, 0
  br i1 %8, label %58, label %9

9:                                                ; preds = %6
  %10 = tail call i32 @access(ptr noundef nonnull %.0, i32 noundef 1) #19
  %11 = icmp slt i32 %10, 0
  br i1 %11, label %12, label %14

12:                                               ; preds = %9
  %13 = tail call i32 (ptr, ...) @error(ptr noundef nonnull @.str.267, ptr noundef nonnull @__func__._run_primary_prog, ptr noundef nonnull %.str.265..str.266) #19
  br label %58

14:                                               ; preds = %9
  %15 = tail call ptr @strrchr(ptr noundef nonnull dereferenceable(1) %.0, i32 noundef 47) #23
  %.not = icmp eq ptr %15, null
  %16 = getelementptr inbounds nuw i8, ptr %15, i64 1
  %storemerge = select i1 %.not, ptr %.0, ptr %16
  store ptr %storemerge, ptr %2, align 16
  %17 = getelementptr inbounds nuw i8, ptr %2, i64 8
  store ptr null, ptr %17, align 8
  %18 = tail call i32 @fork() #19
  %19 = icmp slt i32 %18, 0
  br i1 %19, label %20, label %22

20:                                               ; preds = %14
  %21 = tail call i32 (ptr, ...) @error(ptr noundef nonnull @.str.268, ptr noundef nonnull @__func__._run_primary_prog) #19
  br label %58

22:                                               ; preds = %14
  %23 = icmp eq i32 %18, 0
  br i1 %23, label %24, label %27

24:                                               ; preds = %22
  tail call void @closeall(i32 noundef 0) #19
  %25 = tail call i32 @setpgid(i32 noundef 0, i32 noundef 0) #19
  %26 = call i32 @execv(ptr noundef nonnull %.0, ptr noundef nonnull %2) #19
  call void @_exit(i32 noundef 127) #20
  unreachable

27:                                               ; preds = %22
  %28 = tail call ptr @slurm_xcalloc(i64 noundef 1, i64 noundef 16, i1 noundef zeroext true, i1 noundef zeroext false, ptr noundef nonnull @.str.59, i32 noundef 4029, ptr noundef nonnull @__func__._run_primary_prog) #19
  store i32 %18, ptr %28, align 8
  %29 = tail call ptr @xstrdup(ptr noundef nonnull %.str.265..str.266) #19
  %30 = getelementptr inbounds nuw i8, ptr %28, i64 8
  store ptr %29, ptr %30, align 8
  call void @llvm.lifetime.start.p0(i64 8, ptr nonnull %3) #19
  call void @llvm.lifetime.start.p0(i64 56, ptr nonnull %4) #19
  %31 = call i32 @pthread_attr_init(ptr noundef nonnull %4) #19
  %.not36 = icmp eq i32 %31, 0
  br i1 %.not36, label %34, label %32

32:                                               ; preds = %27
  %33 = tail call ptr @__errno_location() #21
  store i32 %31, ptr %33, align 4
  call void (ptr, ...) @fatal(ptr noundef nonnull @.str.52) #20
  unreachable

34:                                               ; preds = %27
  %35 = call i32 @pthread_attr_setscope(ptr noundef nonnull %4, i32 noundef 0) #19
  %.not37 = icmp eq i32 %35, 0
  br i1 %.not37, label %39, label %36

36:                                               ; preds = %34
  %37 = tail call ptr @__errno_location() #21
  store i32 %35, ptr %37, align 4
  %38 = call i32 (ptr, ...) @error(ptr noundef nonnull @.str.53) #19
  br label %39

39:                                               ; preds = %36, %34
  %40 = call i32 @pthread_attr_setstacksize(ptr noundef nonnull %4, i64 noundef 1048576) #19
  %.not38 = icmp eq i32 %40, 0
  br i1 %.not38, label %44, label %41

41:                                               ; preds = %39
  %42 = tail call ptr @__errno_location() #21
  store i32 %40, ptr %42, align 4
  %43 = call i32 (ptr, ...) @error(ptr noundef nonnull @.str.54) #19
  br label %44

44:                                               ; preds = %41, %39
  %45 = call i32 @pthread_attr_setdetachstate(ptr noundef nonnull %4, i32 noundef 1) #19
  %.not39 = icmp eq i32 %45, 0
  br i1 %.not39, label %48, label %46

46:                                               ; preds = %44
  %47 = tail call ptr @__errno_location() #21
  store i32 %45, ptr %47, align 4
  call void (ptr, ...) @fatal(ptr noundef nonnull @.str.221, ptr noundef nonnull @__func__._run_primary_prog) #20
  unreachable

48:                                               ; preds = %44
  %49 = call i32 @pthread_create(ptr noundef nonnull %3, ptr noundef nonnull %4, ptr noundef nonnull @_wait_primary_prog, ptr noundef nonnull %28) #19
  %.not40 = icmp eq i32 %49, 0
  br i1 %.not40, label %52, label %50

50:                                               ; preds = %48
  %51 = tail call ptr @__errno_location() #21
  store i32 %49, ptr %51, align 4
  call void (ptr, ...) @fatal(ptr noundef nonnull @.str.55, ptr noundef nonnull @__func__._run_primary_prog) #20
  unreachable

52:                                               ; preds = %48
  %53 = call i32 @pthread_attr_destroy(ptr noundef nonnull %4) #19
  %.not41 = icmp eq i32 %53, 0
  br i1 %.not41, label %57, label %54

54:                                               ; preds = %52
  %55 = tail call ptr @__errno_location() #21
  store i32 %53, ptr %55, align 4
  %56 = call i32 (ptr, ...) @error(ptr noundef nonnull @.str.56) #19
  br label %57

57:                                               ; preds = %54, %52
  call void @llvm.lifetime.end.p0(i64 56, ptr nonnull %4) #19
  call void @llvm.lifetime.end.p0(i64 8, ptr nonnull %3) #19
  br label %58

58:                                               ; preds = %1, %6, %57, %20, %12
  call void @llvm.lifetime.end.p0(i64 16, ptr nonnull %2) #19
  ret void
}